; Function Attrs: mustprogress sspstrong uwtable
define void @_ZN3tbb6detail2r117threading_control13adjust_demandENS1_24threading_control_clientEii(ptr noundef nonnull readonly align 8 captures(none) dereferenceable(16) %0, ptr %1, ptr readnone captures(none) %2, i32 noundef %3, i32 noundef %4) local_unnamed_addr #0 align 2 {
  %6 = load ptr, ptr %0, align 8, !tbaa !150
  %7 = getelementptr inbounds nuw i8, ptr %6, i64 16
  %8 = load ptr, ptr %7, align 8, !tbaa !54
  tail call void @_ZN3tbb6detail2r131thread_request_serializer_proxy26register_mandatory_requestEi(ptr noundef nonnull align 8 dereferenceable(64) %8, i32 noundef %3)
  %9 = load ptr, ptr %6, align 8, !tbaa !47
  %10 = load ptr, ptr %9, align 8, !tbaa !14
  %11 = getelementptr inbounds nuw i8, ptr %10, i64 48
  %12 = load ptr, ptr %11, align 8
  tail call void %12(ptr noundef nonnull align 8 dereferenceable(16) %9, ptr noundef nonnull align 8 dereferenceable(24) %1, i32 noundef %3, i32 noundef %4)
  ret void
}